; Function Attrs: nounwind uwtable
define internal ptr @createIntegerObject(ptr noundef readonly captures(none) %0, i64 noundef %1) #0 {
  %3 = load ptr, ptr getelementptr inbounds nuw (i8, ptr @hiredisAllocFns, i64 8), align 8, !tbaa !59
  %4 = tail call ptr %3(i64 noundef 1, i64 noundef 64) #13
  %5 = icmp eq ptr %4, null
  br i1 %5, label %createReplyObject.exit.thread, label %6

6:                                                ; preds = %2
  store i32 3, ptr %4, align 8, !tbaa !4
  %7 = getelementptr inbounds nuw i8, ptr %4, i64 8
  store i64 %1, ptr %7, align 8, !tbaa !83
  %8 = getelementptr inbounds nuw i8, ptr %0, i64 32
  %9 = load ptr, ptr %8, align 8, !tbaa !80
  %.not = icmp eq ptr %9, null
  br i1 %.not, label %createReplyObject.exit.thread, label %10

10:                                               ; preds = %6
  %11 = getelementptr inbounds nuw i8, ptr %9, i64 24
  %12 = load ptr, ptr %11, align 8, !tbaa !81
  %13 = getelementptr inbounds nuw i8, ptr %12, i64 56
  %14 = load ptr, ptr %13, align 8, !tbaa !15
  %15 = getelementptr inbounds nuw i8, ptr %0, i64 16
  %16 = load i32, ptr %15, align 8, !tbaa !82
  %17 = sext i32 %16 to i64
  %18 = getelementptr inbounds ptr, ptr %14, i64 %17
  store ptr %4, ptr %18, align 8, !tbaa !17
  br label %createReplyObject.exit.thread

createReplyObject.exit.thread:                    ; preds = %2, %6, %10
  ret ptr %4
}